; Function Attrs: mustprogress nofree norecurse nosync nounwind willreturn memory(read, argmem: readwrite, inaccessiblemem: none) uwtable
define hidden void @_Py_Specialize_Send(i64 %0, ptr noundef captures(none) %1) local_unnamed_addr #2 {
  %3 = inttoptr i64 %0 to ptr
  %4 = getelementptr i8, ptr %3, i64 8
  %.val = load ptr, ptr %4, align 8, !tbaa !9
  %5 = icmp eq ptr %.val, @PyGen_Type
  %6 = icmp eq ptr %.val, @PyCoro_Type
  %or.cond = or i1 %5, %6
  br i1 %or.cond, label %7, label %16

7:                                                ; preds = %2
  %8 = tail call align 8 ptr @llvm.threadlocal.address.p0(ptr align 8 @_Py_tss_tstate)
  %9 = load ptr, ptr %8, align 8, !tbaa !34
  %10 = getelementptr inbounds nuw i8, ptr %9, i64 16
  %11 = load ptr, ptr %10, align 8, !tbaa !36
  %12 = getelementptr inbounds nuw i8, ptr %11, i64 8472
  %13 = load ptr, ptr %12, align 8, !tbaa !73
  %.not = icmp eq ptr %13, null
  br i1 %.not, label %14, label %16

14:                                               ; preds = %7
  store i8 -39, ptr %1, align 2, !tbaa !4
  %15 = getelementptr i8, ptr %1, i64 2
  store i16 832, ptr %15, align 2, !tbaa !24
  br label %30

16:                                               ; preds = %2, %7
  %17 = load i8, ptr %1, align 2, !tbaa !4
  %18 = zext i8 %17 to i64
  %19 = getelementptr [256 x i8], ptr @_PyOpcode_Deopt, i64 0, i64 %18
  %20 = load i8, ptr %19, align 1, !tbaa !4
  store i8 %20, ptr %1, align 2, !tbaa !4
  %21 = getelementptr i8, ptr %1, i64 2
  %.val.i = load i16, ptr %21, align 2, !tbaa !24
  %22 = and i16 %.val.i, 15
  %23 = icmp samesign ult i16 %22, 12
  br i1 %23, label %24, label %unspecialize.exit

24:                                               ; preds = %16
  %narrow.i.i.i = add nuw nsw i16 %22, 1
  %25 = zext nneg i16 %narrow.i.i.i to i32
  %notmask.i.i.i = shl nsw i32 -1, %25
  %26 = trunc i32 %notmask.i.i.i to i16
  %27 = xor i16 %26, -1
  %28 = shl nuw i16 %27, 4
  %29 = or i16 %28, %narrow.i.i.i
  br label %unspecialize.exit

unspecialize.exit:                                ; preds = %16, %24
  %.sroa.03.0.i.i.i = phi i16 [ %29, %24 ], [ -4, %16 ]
  store i16 %.sroa.03.0.i.i.i, ptr %21, align 2, !tbaa !24
  br label %30

30:                                               ; preds = %unspecialize.exit, %14
  ret void
}